target datalayout = "e-m:e-p270:32:32-p271:32:32-p272:64:64-i64:64-i128:128-f80:128-n8:16:32:64-S128"
target triple = "x86_64-unknown-linux-gnu"

%"class.cineon::Reader" = type { ptr, %"struct.cineon::Header", ptr, ptr, ptr }
%"struct.cineon::Header" = type { %"struct.cineon::GenericHeader", %"struct.cineon::IndustryHeader" }
%"struct.cineon::GenericHeader" = type { i32, i32, i32, i32, i32, i32, [8 x i8], [100 x i8], [12 x i8], [12 x i8], [36 x i8], i8, i8, [2 x i8], [8 x %"struct.cineon::ImageElement"], [2 x float], [2 x float], [2 x float], [2 x float], [200 x i8], [28 x i8], i8, i8, i8, i8, i32, i32, [20 x i8], i32, i32, [100 x i8], [12 x i8], [12 x i8], [64 x i8], [32 x i8], [32 x i8], float, float, float, [40 x i8] }
%"struct.cineon::ImageElement" = type { [2 x i8], i8, i8, i32, i32, float, float, float, float }
%"struct.cineon::IndustryHeader" = type { i8, i8, i8, i8, i32, i32, [32 x i8], i32, float, [32 x i8], [200 x i8], [740 x i8] }

; Function Attrs: mustprogress uwtable
define hidden void @_ZN6cineon6Reader5ResetEv(ptr noundef nonnull align 8 dereferenceable(2080) %this) #6 align 2 personality ptr @__gxx_personality_v0 {
entry:
  %this.addr = alloca ptr, align 8
  %exn.slot = alloca ptr, align 8
  %ehselector.slot = alloca i32, align 4
  store ptr %this, ptr %this.addr, align 8
  %this1 = load ptr, ptr %this.addr, align 8
  %codec = getelementptr inbounds %"class.cineon::Reader", ptr %this1, i32 0, i32 3
  %0 = load ptr, ptr %codec, align 8
  %isnull = icmp eq ptr %0, null
  br i1 %isnull, label %delete.end, label %delete.notnull

delete.notnull:                                   ; preds = %entry
  %vtable = load ptr, ptr %0, align 8
  %vfn = getelementptr inbounds ptr, ptr %vtable, i64 1
  %1 = load ptr, ptr %vfn, align 8
  call void %1(ptr noundef nonnull align 8 dereferenceable(16) %0) #5
  br label %delete.end

delete.end:                                       ; preds = %delete.notnull, %entry
  %codec2 = getelementptr inbounds %"class.cineon::Reader", ptr %this1, i32 0, i32 3
  store ptr null, ptr %codec2, align 8
  %rio = getelementptr inbounds %"class.cineon::Reader", ptr %this1, i32 0, i32 4
  %2 = load ptr, ptr %rio, align 8
  %tobool = icmp ne ptr %2, null
  br i1 %tobool, label %if.then, label %if.end

if.then:                                          ; preds = %delete.end
  %rio3 = getelementptr inbounds %"class.cineon::Reader", ptr %this1, i32 0, i32 4
  %3 = load ptr, ptr %rio3, align 8
  %isnull4 = icmp eq ptr %3, null
  br i1 %isnull4, label %delete.end8, label %delete.notnull5

delete.notnull5:                                  ; preds = %if.then
  %vtable6 = load ptr, ptr %3, align 8
  %vfn7 = getelementptr inbounds ptr, ptr %vtable6, i64 1
  %4 = load ptr, ptr %vfn7, align 8
  call void %4(ptr noundef nonnull align 8 dereferenceable(16) %3) #5
  br label %delete.end8

delete.end8:                                      ; preds = %delete.notnull5, %if.then
  %rio9 = getelementptr inbounds %"class.cineon::Reader", ptr %this1, i32 0, i32 4
  store ptr null, ptr %rio9, align 8
  br label %if.end

if.end:                                           ; preds = %delete.end8, %delete.end
  %fd = getelementptr inbounds %"class.cineon::Reader", ptr %this1, i32 0, i32 2
  %5 = load ptr, ptr %fd, align 8
  %tobool10 = icmp ne ptr %5, null
  br i1 %tobool10, label %if.then11, label %if.end14

if.then11:                                        ; preds = %if.end
  %call = call noalias noundef nonnull ptr @_Znwm(i64 noundef 16) #11
  %fd12 = getelementptr inbounds %"class.cineon::Reader", ptr %this1, i32 0, i32 2
  %6 = load ptr, ptr %fd12, align 8
  invoke void @_ZN6cineon17ElementReadStreamC1EPNS_8InStreamE(ptr noundef nonnull align 8 dereferenceable(16) %call, ptr noundef %6)
          to label %invoke.cont unwind label %lpad

invoke.cont:                                      ; preds = %if.then11
  %rio13 = getelementptr inbounds %"class.cineon::Reader", ptr %this1, i32 0, i32 4
  store ptr %call, ptr %rio13, align 8
  br label %if.end14

lpad:                                             ; preds = %if.then11
  %7 = landingpad { ptr, i32 }
          cleanup
  %8 = extractvalue { ptr, i32 } %7, 0
  store ptr %8, ptr %exn.slot, align 8
  %9 = extractvalue { ptr, i32 } %7, 1
  store i32 %9, ptr %ehselector.slot, align 4
  call void @_ZdlPv(ptr noundef %call) #9
  br label %eh.resume

if.end14:                                         ; preds = %invoke.cont, %if.end
  ret void

eh.resume:                                        ; preds = %lpad
  %exn = load ptr, ptr %exn.slot, align 8
  %sel = load i32, ptr %ehselector.slot, align 4
  %lpad.val = insertvalue { ptr, i32 } poison, ptr %exn, 0
  %lpad.val15 = insertvalue { ptr, i32 } %lpad.val, i32 %sel, 1
  resume { ptr, i32 } %lpad.val15
}