; Function Attrs: mustprogress uwtable
define hidden void @_ZN6cineon6Reader5ResetEv(ptr nocapture noundef nonnull align 8 dereferenceable(2080) %this) local_unnamed_addr #4 align 2 personality ptr @__gxx_personality_v0 {
entry:
  %codec = getelementptr inbounds i8, ptr %this, i64 2064
  %0 = load ptr, ptr %codec, align 8
  %isnull = icmp eq ptr %0, null
  br i1 %isnull, label %delete.end, label %delete.notnull

delete.notnull:                                   ; preds = %entry
  %vtable = load ptr, ptr %0, align 8
  %vfn = getelementptr inbounds i8, ptr %vtable, i64 8
  %1 = load ptr, ptr %vfn, align 8
  tail call void %1(ptr noundef nonnull align 8 dereferenceable(16) %0) #10
  br label %delete.end

delete.end:                                       ; preds = %delete.notnull, %entry
  store ptr null, ptr %codec, align 8
  %rio = getelementptr inbounds i8, ptr %this, i64 2072
  %2 = load ptr, ptr %rio, align 8
  %tobool.not = icmp eq ptr %2, null
  br i1 %tobool.not, label %if.end, label %delete.notnull5

delete.notnull5:                                  ; preds = %delete.end
  %vtable6 = load ptr, ptr %2, align 8
  %vfn7 = getelementptr inbounds i8, ptr %vtable6, i64 8
  %3 = load ptr, ptr %vfn7, align 8
  tail call void %3(ptr noundef nonnull align 8 dereferenceable(16) %2) #10
  store ptr null, ptr %rio, align 8
  br label %if.end

if.end:                                           ; preds = %delete.notnull5, %delete.end
  %fd = getelementptr inbounds i8, ptr %this, i64 2056
  %4 = load ptr, ptr %fd, align 8
  %tobool10.not = icmp eq ptr %4, null
  br i1 %tobool10.not, label %if.end14, label %if.then11

if.then11:                                        ; preds = %if.end
  %call = tail call noalias noundef nonnull dereferenceable(16) ptr @_Znwm(i64 noundef 16) #11
  invoke void @_ZN6cineon17ElementReadStreamC1EPNS_8InStreamE(ptr noundef nonnull align 8 dereferenceable(16) %call, ptr noundef nonnull %4)
          to label %invoke.cont unwind label %lpad

invoke.cont:                                      ; preds = %if.then11
  store ptr %call, ptr %rio, align 8
  br label %if.end14

lpad:                                             ; preds = %if.then11
  %5 = landingpad { ptr, i32 }
          cleanup
  tail call void @_ZdlPv(ptr noundef nonnull %call) #12
  resume { ptr, i32 } %5

if.end14:                                         ; preds = %invoke.cont, %if.end
  ret void
}